; Function Attrs: mustprogress uwtable
define void @uscript_closeRun_77(ptr noundef %0) local_unnamed_addr #0 {
  %.not = icmp eq ptr %0, null
  br i1 %.not, label %3, label %2

2:                                                ; preds = %1
  tail call void @uprv_free_77(ptr noundef nonnull %0)
  br label %3

3:                                                ; preds = %2, %1
  ret void
}